; Function Attrs: null_pointer_is_valid sspstrong uwtable
define internal fastcc void @proto_mpeg_descriptor_dissect_xait(ptr noundef %0, i32 noundef %1, ptr noundef %2) unnamed_addr #1 {
  %4 = load i32, ptr @hf_mpeg_descr_xait_onid, align 4
  %5 = tail call ptr @proto_tree_add_item(ptr noundef %2, i32 noundef %4, ptr noundef %0, i32 noundef %1, i32 noundef 2, i32 noundef 0)
  %6 = add i32 %1, 2
  %7 = load i32, ptr @hf_mpeg_descr_xait_sid, align 4
  %8 = tail call ptr @proto_tree_add_item(ptr noundef %2, i32 noundef %7, ptr noundef %0, i32 noundef %6, i32 noundef 2, i32 noundef 0)
  %9 = add i32 %1, 4
  %10 = load i32, ptr @hf_mpeg_descr_xait_version_number, align 4
  %11 = tail call ptr @proto_tree_add_item(ptr noundef %2, i32 noundef %10, ptr noundef %0, i32 noundef %9, i32 noundef 1, i32 noundef 0)
  %12 = load i32, ptr @hf_mpeg_descr_xait_update_policy, align 4
  %13 = tail call ptr @proto_tree_add_item(ptr noundef %2, i32 noundef %12, ptr noundef %0, i32 noundef %9, i32 noundef 1, i32 noundef 0)
  ret void
}